target datalayout = "e-m:e-p270:32:32-p271:32:32-p272:64:64-i64:64-i128:128-f80:128-n8:16:32:64-S128"
target triple = "x86_64-pc-linux-gnu"

%struct.strbuf = type { i64, i64, ptr }
%struct.notes_merge_options = type { ptr, ptr, ptr, %struct.strbuf, i32, i32, i8 }

@.str.17 = private unnamed_addr constant [21 x i8] c"NOTES_MERGE_WORKTREE\00", align 1
@__const.notes_merge_abort.buf = private unnamed_addr constant %struct.strbuf { i64 0, i64 0, ptr @strbuf_slopbuf }, align 8
@.str.27 = private unnamed_addr constant [39 x i8] c"Removing notes merge worktree at %s/*\0A\00", align 1

; Function Attrs: nounwind uwtable
define dso_local i32 @notes_merge_abort(ptr noundef %0) #0 {
  %2 = alloca ptr, align 8
  %3 = alloca %struct.strbuf, align 8
  %4 = alloca i32, align 4
  store ptr %0, ptr %2, align 8, !tbaa !9
  call void @llvm.lifetime.start.p0(i64 24, ptr %3) #12
  call void @llvm.memcpy.p0.p0.i64(ptr align 8 %3, ptr align 8 @__const.notes_merge_abort.buf, i64 24, i1 false)
  call void @llvm.lifetime.start.p0(i64 4, ptr %4) #12
  %5 = call ptr (ptr, ptr, ...) @git_path_buf(ptr noundef %3, ptr noundef @.str.17)
  %6 = load ptr, ptr %2, align 8, !tbaa !9
  %7 = getelementptr inbounds nuw %struct.notes_merge_options, ptr %6, i32 0, i32 4
  %8 = load i32, ptr %7, align 8, !tbaa !11
  %9 = icmp sge i32 %8, 3
  br i1 %9, label %10, label %14

10:                                               ; preds = %1
  %11 = getelementptr inbounds nuw %struct.strbuf, ptr %3, i32 0, i32 2
  %12 = load ptr, ptr %11, align 8, !tbaa !68
  %13 = call i32 (ptr, ...) @printf(ptr noundef @.str.27, ptr noundef %12)
  br label %14

14:                                               ; preds = %10, %1
  %15 = call i32 @remove_dir_recursively(ptr noundef %3, i32 noundef 4)
  store i32 %15, ptr %4, align 4, !tbaa !24
  call void @strbuf_release(ptr noundef %3)
  %16 = load i32, ptr %4, align 4, !tbaa !24
  call void @llvm.lifetime.end.p0(i64 4, ptr %4) #12
  call void @llvm.lifetime.end.p0(i64 24, ptr %3) #12
  ret i32 %16
}