; Function Attrs: nounwind uwtable
define dso_local i32 @notes_merge_abort(ptr noundef readonly captures(none) %0) local_unnamed_addr #0 {
  %2 = alloca %struct.strbuf, align 8
  call void @llvm.lifetime.start.p0(i64 24, ptr nonnull %2) #17
  call void @llvm.memcpy.p0.p0.i64(ptr noundef nonnull align 8 dereferenceable(24) %2, ptr noundef nonnull align 8 dereferenceable(24) @__const.git_pathdup.path, i64 24, i1 false)
  call void (ptr, ptr, ...) @git_path_buf(ptr noundef %2, ptr nonnull poison)
  %3 = getelementptr inbounds nuw i8, ptr %0, i64 48
  %4 = load i32, ptr %3, align 8, !tbaa !4
  %5 = icmp sgt i32 %4, 2
  br i1 %5, label %6, label %10

6:                                                ; preds = %1
  %7 = getelementptr inbounds nuw i8, ptr %2, i64 16
  %8 = load ptr, ptr %7, align 8, !tbaa !99
  %9 = call i32 (ptr, ...) @printf(ptr noundef nonnull dereferenceable(1) @.str.27, ptr noundef %8)
  br label %10

10:                                               ; preds = %6, %1
  %11 = call i32 @remove_dir_recursively(ptr noundef nonnull %2, i32 noundef 4) #17
  call void @strbuf_release(ptr noundef nonnull %2) #17
  call void @llvm.lifetime.end.p0(i64 24, ptr nonnull %2) #17
  ret i32 %11
}